target datalayout = "e-m:e-p270:32:32-p271:32:32-p272:64:64-i64:64-i128:128-f80:128-n8:16:32:64-S128"
target triple = "x86_64-unknown-linux-gnu"

@_ZN2EA8UnitTest12TestFunctionC1EPKcPFivE = dso_local unnamed_addr alias void (ptr, ptr, ptr), ptr @_ZN2EA8UnitTest12TestFunctionC2EPKcPFivE

; Function Attrs: mustprogress uwtable
define dso_local void @_ZN2EA8UnitTest14TestCollection7AddTestEPKcPFivE(ptr noundef nonnull align 8 dereferenceable(32) %this, ptr noundef %pTestName, ptr noundef %pFunction) unnamed_addr #2 align 2 personality ptr @__gxx_personality_v0 {
entry:
  %this.addr = alloca ptr, align 8
  %pTestName.addr = alloca ptr, align 8
  %pFunction.addr = alloca ptr, align 8
  %pTF = alloca ptr, align 8
  %exn.slot = alloca ptr, align 8
  %ehselector.slot = alloca i32, align 4
  store ptr %this, ptr %this.addr, align 8
  store ptr %pTestName, ptr %pTestName.addr, align 8
  store ptr %pFunction, ptr %pFunction.addr, align 8
  %this1 = load ptr, ptr %this.addr, align 8
  %call = call noalias noundef nonnull ptr @_Znwm(i64 noundef 88) #14
  %0 = load ptr, ptr %pTestName.addr, align 8
  %1 = load ptr, ptr %pFunction.addr, align 8
  invoke void @_ZN2EA8UnitTest12TestFunctionC1EPKcPFivE(ptr noundef nonnull align 8 dereferenceable(88) %call, ptr noundef %0, ptr noundef %1)
          to label %invoke.cont unwind label %lpad

invoke.cont:                                      ; preds = %entry
  store ptr %call, ptr %pTF, align 8
  %2 = load ptr, ptr %pTF, align 8
  %vtable = load ptr, ptr %this1, align 8
  %vfn = getelementptr inbounds ptr, ptr %vtable, i64 2
  %3 = load ptr, ptr %vfn, align 8
  %call2 = call noundef zeroext i1 %3(ptr noundef nonnull align 8 dereferenceable(32) %this1, ptr noundef %2, i1 noundef zeroext true)
  ret void

lpad:                                             ; preds = %entry
  %4 = landingpad { ptr, i32 }
          cleanup
  %5 = extractvalue { ptr, i32 } %4, 0
  store ptr %5, ptr %exn.slot, align 8
  %6 = extractvalue { ptr, i32 } %4, 1
  store i32 %6, ptr %ehselector.slot, align 4
  call void @_ZdlPv(ptr noundef %call) #15
  br label %eh.resume

eh.resume:                                        ; preds = %lpad
  %exn = load ptr, ptr %exn.slot, align 8
  %sel = load i32, ptr %ehselector.slot, align 4
  %lpad.val = insertvalue { ptr, i32 } poison, ptr %exn, 0
  %lpad.val3 = insertvalue { ptr, i32 } %lpad.val, i32 %sel, 1
  resume { ptr, i32 } %lpad.val3
}