; Function Attrs: mustprogress uwtable
define dso_local void @_ZN2EA8UnitTest14TestCollection7AddTestEPKcPFivE(ptr noundef nonnull align 8 dereferenceable(32) %this, ptr noundef %pTestName, ptr noundef %pFunction) unnamed_addr #0 align 2 personality ptr @__gxx_personality_v0 {
entry:
  %call = tail call noalias noundef nonnull dereferenceable(88) ptr @_Znwm(i64 noundef 88) #30
  store ptr getelementptr inbounds ({ [13 x ptr] }, ptr @_ZTVN2EA8UnitTest4TestE, i64 0, i32 0, i64 2), ptr %call, align 8
  %msTestName.i.i = getelementptr inbounds i8, ptr %call, i64 8
  store i8 0, ptr %msTestName.i.i, align 1
  %mRemainingSizeField.i.i.i.i.i.i.i.i = getelementptr inbounds i8, ptr %call, i64 31
  store i8 23, ptr %mRemainingSizeField.i.i.i.i.i.i.i.i, align 1
  br label %while.cond.i.i.i.i.i

while.cond.i.i.i.i.i:                             ; preds = %while.cond.i.i.i.i.i, %entry
  %pCurrent.0.i.i.i.i.i = phi ptr [ %pTestName, %entry ], [ %incdec.ptr.i.i.i.i.i, %while.cond.i.i.i.i.i ]
  %0 = load i8, ptr %pCurrent.0.i.i.i.i.i, align 1
  %tobool.not.i.i.i.i.i = icmp eq i8 %0, 0
  %incdec.ptr.i.i.i.i.i = getelementptr inbounds i8, ptr %pCurrent.0.i.i.i.i.i, i64 1
  br i1 %tobool.not.i.i.i.i.i, label %_ZN5eastl10CharStrlenIcEEmPKT_.exit.i.i.i.i, label %while.cond.i.i.i.i.i, !llvm.loop !7

_ZN5eastl10CharStrlenIcEEmPKT_.exit.i.i.i.i:      ; preds = %while.cond.i.i.i.i.i
  %sub.ptr.rhs.cast.i.i.i.i.i = ptrtoint ptr %pTestName to i64
  %sub.ptr.lhs.cast.i3.i.i.i.i = ptrtoint ptr %pCurrent.0.i.i.i.i.i to i64
  %sub.ptr.sub.i5.i.i.i.i = sub i64 %sub.ptr.lhs.cast.i3.i.i.i.i, %sub.ptr.rhs.cast.i.i.i.i.i
  %cmp.i.i.i.i.i.i = icmp ugt i64 %sub.ptr.sub.i5.i.i.i.i, 23
  br i1 %cmp.i.i.i.i.i.i, label %if.then.i.i.i.i.i.i, label %if.else.i.i.i.i.i.i

if.then.i.i.i.i.i.i:                              ; preds = %_ZN5eastl10CharStrlenIcEEmPKT_.exit.i.i.i.i
  %add.i.i.i.i.i.i = add i64 %sub.ptr.sub.i5.i.i.i.i, 1
  %call.i.i.i.i.i.i.i.i1 = invoke noundef ptr @_ZnamPKcijS0_i(i64 noundef %add.i.i.i.i.i.i, ptr noundef null, i32 noundef 0, i32 noundef 0, ptr noundef null, i32 noundef 0)
          to label %call.i.i.i.i.i.i.i.i.noexc unwind label %lpad

call.i.i.i.i.i.i.i.i.noexc:                       ; preds = %if.then.i.i.i.i.i.i
  store ptr %call.i.i.i.i.i.i.i.i1, ptr %msTestName.i.i, align 8
  %or.i.i.i.i.i.i.i = or i64 %sub.ptr.sub.i5.i.i.i.i, -9223372036854775808
  %mnCapacity.i.i.i.i.i.i.i = getelementptr inbounds i8, ptr %call, i64 24
  store i64 %or.i.i.i.i.i.i.i, ptr %mnCapacity.i.i.i.i.i.i.i, align 8
  %mnSize.i.i.i.i.i.i.i = getelementptr inbounds i8, ptr %call, i64 16
  store i64 %sub.ptr.sub.i5.i.i.i.i, ptr %mnSize.i.i.i.i.i.i.i, align 8
  br label %invoke.cont

if.else.i.i.i.i.i.i:                              ; preds = %_ZN5eastl10CharStrlenIcEEmPKT_.exit.i.i.i.i
  %1 = trunc i64 %sub.ptr.sub.i5.i.i.i.i to i8
  %conv.i.i.i.i.i.i.i = sub nuw nsw i8 23, %1
  store i8 %conv.i.i.i.i.i.i.i, ptr %mRemainingSizeField.i.i.i.i.i.i.i.i, align 1
  br label %invoke.cont

invoke.cont:                                      ; preds = %if.else.i.i.i.i.i.i, %call.i.i.i.i.i.i.i.i.noexc
  %tobool.i.i.i.i.i.i.i = phi ptr [ %call.i.i.i.i.i.i.i.i1, %call.i.i.i.i.i.i.i.i.noexc ], [ %msTestName.i.i, %if.else.i.i.i.i.i.i ]
  tail call void @llvm.memmove.p0.p0.i64(ptr align 1 %tobool.i.i.i.i.i.i.i, ptr align 1 %pTestName, i64 %sub.ptr.sub.i5.i.i.i.i, i1 false)
  %2 = load i8, ptr %mRemainingSizeField.i.i.i.i.i.i.i.i, align 1
  %tobool.i.i5.i.i.i.i.i = icmp slt i8 %2, 0
  %3 = load ptr, ptr %msTestName.i.i, align 8
  %mnSize.i.i6.i.i.i.i.i = getelementptr inbounds i8, ptr %call, i64 16
  %4 = load i64, ptr %mnSize.i.i6.i.i.i.i.i, align 8
  %add.ptr.i.i.i.i.i.i.i = getelementptr inbounds i8, ptr %3, i64 %4
  %conv.i.i.i.i.i.i.i.i = zext nneg i8 %2 to i64
  %sub.i.i.i.i.i.i.i.i = sub nsw i64 23, %conv.i.i.i.i.i.i.i.i
  %add.ptr.i1.i.i.i.i.i.i = getelementptr inbounds i8, ptr %msTestName.i.i, i64 %sub.i.i.i.i.i.i.i.i
  %cond.i.i.i.i.i.i = select i1 %tobool.i.i5.i.i.i.i.i, ptr %add.ptr.i.i.i.i.i.i.i, ptr %add.ptr.i1.i.i.i.i.i.i
  store i8 0, ptr %cond.i.i.i.i.i.i, align 1
  %mpParentSuite.i.i = getelementptr inbounds i8, ptr %call, i64 32
  tail call void @llvm.memset.p0.i64(ptr noundef nonnull align 8 dereferenceable(33) %mpParentSuite.i.i, i8 0, i64 33, i1 false)
  store ptr getelementptr inbounds ({ [13 x ptr] }, ptr @_ZTVN2EA8UnitTest12TestFunctionE, i64 0, i32 0, i64 2), ptr %call, align 8
  %mpFunction.i = getelementptr inbounds i8, ptr %call, i64 80
  store ptr %pFunction, ptr %mpFunction.i, align 8
  %vtable = load ptr, ptr %this, align 8
  %vfn = getelementptr inbounds i8, ptr %vtable, i64 16
  %5 = load ptr, ptr %vfn, align 8
  %call2 = tail call noundef zeroext i1 %5(ptr noundef nonnull align 8 dereferenceable(32) %this, ptr noundef nonnull %call, i1 noundef zeroext true)
  ret void

lpad:                                             ; preds = %if.then.i.i.i.i.i.i
  %6 = landingpad { ptr, i32 }
          cleanup
  tail call void @_ZdlPv(ptr noundef nonnull %call) #31
  resume { ptr, i32 } %6
}